target datalayout = "e-m:e-p270:32:32-p271:32:32-p272:64:64-i64:64-i128:128-f80:128-n8:16:32:64-S128"
target triple = "x86_64-pc-linux-gnu"

%struct._typeobject = type { %struct.PyVarObject, ptr, i64, i64, ptr, i64, ptr, ptr, ptr, ptr, ptr, ptr, ptr, ptr, ptr, ptr, ptr, ptr, ptr, i64, ptr, ptr, ptr, ptr, i64, ptr, ptr, ptr, ptr, ptr, ptr, ptr, ptr, ptr, i64, ptr, ptr, ptr, ptr, ptr, ptr, ptr, ptr, ptr, ptr, ptr, i32, ptr, ptr, i8, i16 }
%struct.PyVarObject = type { %struct._object, i64 }
%struct._object = type { %union.anon, ptr }
%union.anon = type { i64 }
%struct._ts = type { ptr, ptr, ptr, i64, %struct.anon.0, i32, i32, i32, i32, i32, i32, i32, i32, ptr, ptr, ptr, ptr, ptr, ptr, ptr, ptr, i32, ptr, i64, i64, ptr, i64, i32, ptr, ptr, ptr, i64, i64, ptr, ptr, ptr, %struct._err_stackitem, ptr, i64, ptr, ptr }
%struct.anon.0 = type { i32 }
%struct._err_stackitem = type { ptr, ptr }
%struct._odictobject = type { %struct.PyDictObject, ptr, ptr, ptr, i64, ptr, i64, ptr, ptr }
%struct.PyDictObject = type { %struct._object, i64, i64, ptr, ptr }
%struct._odictnode = type { ptr, i64, ptr, ptr }
%struct.anon = type { i32, i32 }

@PyDict_Type = external global %struct._typeobject, align 8

; Function Attrs: alwaysinline nounwind uwtable
define internal i32 @_Py_IsImmortal(ptr noundef %0) #4 {
  %2 = alloca ptr, align 8
  store ptr %0, ptr %2, align 8, !tbaa !42
  %3 = load ptr, ptr %2, align 8, !tbaa !42
  %4 = getelementptr inbounds nuw %struct._object, ptr %3, i32 0, i32 0
  %5 = getelementptr inbounds nuw %struct.anon, ptr %4, i32 0, i32 0
  %6 = load i32, ptr %5, align 8, !tbaa !74
  %7 = icmp slt i32 %6, 0
  %8 = zext i1 %7 to i32
  ret i32 %8
}

; Function Attrs: alwaysinline nounwind uwtable
define internal void @Py_DECREF(ptr noundef %0) #4 {
  %2 = alloca ptr, align 8
  store ptr %0, ptr %2, align 8, !tbaa !42
  %3 = load ptr, ptr %2, align 8, !tbaa !42
  %4 = call i32 @_Py_IsImmortal(ptr noundef %3)
  %5 = icmp ne i32 %4, 0
  br i1 %5, label %6, label %7

6:                                                ; preds = %1
  br label %16

7:                                                ; preds = %1
  %8 = load ptr, ptr %2, align 8, !tbaa !42
  %9 = getelementptr inbounds nuw %struct._object, ptr %8, i32 0, i32 0
  %10 = getelementptr inbounds nuw %struct.anon, ptr %9, i32 0, i32 0
  %11 = load i32, ptr %10, align 8, !tbaa !74
  %12 = add i32 %11, -1
  store i32 %12, ptr %10, align 8, !tbaa !74
  %13 = icmp eq i32 %12, 0
  br i1 %13, label %14, label %16

14:                                               ; preds = %7
  %15 = load ptr, ptr %2, align 8, !tbaa !42
  call void @_Py_Dealloc(ptr noundef %15)
  br label %16

16:                                               ; preds = %6, %14, %7
  ret void
}

; Function Attrs: nounwind uwtable
define internal void @_odict_clear_nodes(ptr noundef %0) #0 {
  %2 = alloca ptr, align 8
  %3 = alloca ptr, align 8
  %4 = alloca ptr, align 8
  store ptr %0, ptr %2, align 8, !tbaa !4
  call void @llvm.lifetime.start.p0(i64 8, ptr %3) #7
  call void @llvm.lifetime.start.p0(i64 8, ptr %4) #7
  %5 = load ptr, ptr %2, align 8, !tbaa !4
  %6 = getelementptr inbounds nuw %struct._odictobject, ptr %5, i32 0, i32 3
  %7 = load ptr, ptr %6, align 8, !tbaa !58
  call void @PyMem_Free(ptr noundef %7)
  %8 = load ptr, ptr %2, align 8, !tbaa !4
  %9 = getelementptr inbounds nuw %struct._odictobject, ptr %8, i32 0, i32 3
  store ptr null, ptr %9, align 8, !tbaa !58
  %10 = load ptr, ptr %2, align 8, !tbaa !4
  %11 = getelementptr inbounds nuw %struct._odictobject, ptr %10, i32 0, i32 4
  store i64 0, ptr %11, align 8, !tbaa !69
  %12 = load ptr, ptr %2, align 8, !tbaa !4
  %13 = getelementptr inbounds nuw %struct._odictobject, ptr %12, i32 0, i32 5
  store ptr null, ptr %13, align 8, !tbaa !70
  %14 = load ptr, ptr %2, align 8, !tbaa !4
  %15 = getelementptr inbounds nuw %struct._odictobject, ptr %14, i32 0, i32 1
  %16 = load ptr, ptr %15, align 8, !tbaa !45
  store ptr %16, ptr %3, align 8, !tbaa !46
  %17 = load ptr, ptr %2, align 8, !tbaa !4
  %18 = getelementptr inbounds nuw %struct._odictobject, ptr %17, i32 0, i32 1
  store ptr null, ptr %18, align 8, !tbaa !45
  %19 = load ptr, ptr %2, align 8, !tbaa !4
  %20 = getelementptr inbounds nuw %struct._odictobject, ptr %19, i32 0, i32 2
  store ptr null, ptr %20, align 8, !tbaa !71
  br label %21

21:                                               ; preds = %34, %1
  %22 = load ptr, ptr %3, align 8, !tbaa !46
  %23 = icmp ne ptr %22, null
  br i1 %23, label %24, label %36

24:                                               ; preds = %21
  %25 = load ptr, ptr %3, align 8, !tbaa !46
  %26 = getelementptr inbounds nuw %struct._odictnode, ptr %25, i32 0, i32 2
  %27 = load ptr, ptr %26, align 8, !tbaa !49
  store ptr %27, ptr %4, align 8, !tbaa !46
  br label %28

28:                                               ; preds = %24
  %29 = load ptr, ptr %3, align 8, !tbaa !46
  %30 = getelementptr inbounds nuw %struct._odictnode, ptr %29, i32 0, i32 0
  %31 = load ptr, ptr %30, align 8, !tbaa !47
  call void @Py_DECREF(ptr noundef %31)
  %32 = load ptr, ptr %3, align 8, !tbaa !46
  call void @PyMem_Free(ptr noundef %32)
  br label %33

33:                                               ; preds = %28
  br label %34

34:                                               ; preds = %33
  %35 = load ptr, ptr %4, align 8, !tbaa !46
  store ptr %35, ptr %3, align 8, !tbaa !46
  br label %21, !llvm.loop !72

36:                                               ; preds = %21
  %37 = load ptr, ptr %2, align 8, !tbaa !4
  %38 = getelementptr inbounds nuw %struct._odictobject, ptr %37, i32 0, i32 6
  %39 = load i64, ptr %38, align 8, !tbaa !73
  %40 = add i64 %39, 1
  store i64 %40, ptr %38, align 8, !tbaa !73
  call void @llvm.lifetime.end.p0(i64 8, ptr %4) #7
  call void @llvm.lifetime.end.p0(i64 8, ptr %3) #7
  ret void
}

; Function Attrs: inlinehint nounwind uwtable
define internal void @Py_XDECREF(ptr noundef %0) #3 {
  %2 = alloca ptr, align 8
  store ptr %0, ptr %2, align 8, !tbaa !42
  %3 = load ptr, ptr %2, align 8, !tbaa !42
  %4 = icmp ne ptr %3, null
  br i1 %4, label %5, label %7

5:                                                ; preds = %1
  %6 = load ptr, ptr %2, align 8, !tbaa !42
  call void @Py_DECREF(ptr noundef %6)
  br label %7

7:                                                ; preds = %5, %1
  ret void
}

; Function Attrs: inlinehint nounwind uwtable
define internal ptr @_Py_TYPE(ptr noundef %0) #3 {
  %2 = alloca ptr, align 8
  store ptr %0, ptr %2, align 8, !tbaa !42
  %3 = load ptr, ptr %2, align 8, !tbaa !42
  %4 = getelementptr inbounds nuw %struct._object, ptr %3, i32 0, i32 1
  %5 = load ptr, ptr %4, align 8, !tbaa !68
  ret ptr %5
}

; Function Attrs: nounwind uwtable
define internal void @odict_dealloc(ptr noundef %0) #0 {
  %2 = alloca ptr, align 8
  %3 = alloca ptr, align 8
  %4 = alloca i32, align 4
  store ptr %0, ptr %2, align 8, !tbaa !4
  %5 = load ptr, ptr %2, align 8, !tbaa !4
  call void @PyObject_GC_UnTrack(ptr noundef %5)
  br label %6

6:                                                ; preds = %1
  call void @llvm.lifetime.start.p0(i64 8, ptr %3) #7
  %7 = call ptr @PyThreadState_Get()
  store ptr %7, ptr %3, align 8, !tbaa !9
  %8 = load ptr, ptr %3, align 8, !tbaa !9
  %9 = getelementptr inbounds nuw %struct._ts, ptr %8, i32 0, i32 9
  %10 = load i32, ptr %9, align 4, !tbaa !11
  %11 = icmp sle i32 %10, 50
  br i1 %11, label %12, label %21

12:                                               ; preds = %6
  %13 = load ptr, ptr %2, align 8, !tbaa !4
  %14 = call ptr @_Py_TYPE(ptr noundef %13)
  %15 = getelementptr inbounds nuw %struct._typeobject, ptr %14, i32 0, i32 4
  %16 = load ptr, ptr %15, align 8, !tbaa !23
  %17 = icmp eq ptr %16, @odict_dealloc
  br i1 %17, label %18, label %21

18:                                               ; preds = %12
  %19 = load ptr, ptr %3, align 8, !tbaa !9
  %20 = load ptr, ptr %2, align 8, !tbaa !4
  call void @_PyTrash_thread_deposit_object(ptr noundef %19, ptr noundef %20)
  store i32 2, ptr %4, align 4
  br label %55

21:                                               ; preds = %12, %6
  %22 = load ptr, ptr %3, align 8, !tbaa !9
  %23 = getelementptr inbounds nuw %struct._ts, ptr %22, i32 0, i32 9
  %24 = load i32, ptr %23, align 4, !tbaa !11
  %25 = add i32 %24, -1
  store i32 %25, ptr %23, align 4, !tbaa !11
  %26 = load ptr, ptr %2, align 8, !tbaa !4
  %27 = getelementptr inbounds nuw %struct._odictobject, ptr %26, i32 0, i32 7
  %28 = load ptr, ptr %27, align 8, !tbaa !33
  call void @Py_XDECREF(ptr noundef %28)
  %29 = load ptr, ptr %2, align 8, !tbaa !4
  %30 = getelementptr inbounds nuw %struct._odictobject, ptr %29, i32 0, i32 8
  %31 = load ptr, ptr %30, align 8, !tbaa !40
  %32 = icmp ne ptr %31, null
  br i1 %32, label %33, label %35

33:                                               ; preds = %21
  %34 = load ptr, ptr %2, align 8, !tbaa !4
  call void @PyObject_ClearWeakRefs(ptr noundef %34)
  br label %35

35:                                               ; preds = %33, %21
  %36 = load ptr, ptr %2, align 8, !tbaa !4
  call void @_odict_clear_nodes(ptr noundef %36)
  %37 = load ptr, ptr getelementptr inbounds nuw (%struct._typeobject, ptr @PyDict_Type, i32 0, i32 4), align 8, !tbaa !23
  %38 = load ptr, ptr %2, align 8, !tbaa !4
  call void %37(ptr noundef %38)
  %39 = load ptr, ptr %3, align 8, !tbaa !9
  %40 = getelementptr inbounds nuw %struct._ts, ptr %39, i32 0, i32 9
  %41 = load i32, ptr %40, align 4, !tbaa !11
  %42 = add i32 %41, 1
  store i32 %42, ptr %40, align 4, !tbaa !11
  %43 = load ptr, ptr %3, align 8, !tbaa !9
  %44 = getelementptr inbounds nuw %struct._ts, ptr %43, i32 0, i32 25
  %45 = load ptr, ptr %44, align 8, !tbaa !41
  %46 = icmp ne ptr %45, null
  br i1 %46, label %47, label %54

47:                                               ; preds = %35
  %48 = load ptr, ptr %3, align 8, !tbaa !9
  %49 = getelementptr inbounds nuw %struct._ts, ptr %48, i32 0, i32 9
  %50 = load i32, ptr %49, align 4, !tbaa !11
  %51 = icmp sgt i32 %50, 100
  br i1 %51, label %52, label %54

52:                                               ; preds = %47
  %53 = load ptr, ptr %3, align 8, !tbaa !9
  call void @_PyTrash_thread_destroy_chain(ptr noundef %53)
  br label %54

54:                                               ; preds = %52, %47, %35
  store i32 0, ptr %4, align 4
  br label %55

55:                                               ; preds = %54, %18
  call void @llvm.lifetime.end.p0(i64 8, ptr %3) #7
  %56 = load i32, ptr %4, align 4
  switch i32 %56, label %59 [
    i32 0, label %57
    i32 2, label %58
  ]

57:                                               ; preds = %55
  br label %58

58:                                               ; preds = %57, %55
  ret void

59:                                               ; preds = %55
  unreachable
}