; Function Attrs: nounwind uwtable
define internal void @odict_dealloc(ptr noundef %0) #0 {
  tail call void @PyObject_GC_UnTrack(ptr noundef %0) #8
  %2 = tail call ptr @PyThreadState_Get() #8
  %3 = getelementptr inbounds nuw i8, ptr %2, i64 52
  %4 = load i32, ptr %3, align 4, !tbaa !4
  %5 = icmp slt i32 %4, 51
  br i1 %5, label %6, label %12

6:                                                ; preds = %1
  %7 = getelementptr i8, ptr %0, i64 8
  %.val = load ptr, ptr %7, align 8, !tbaa !20
  %8 = getelementptr inbounds nuw i8, ptr %.val, i64 48
  %9 = load ptr, ptr %8, align 8, !tbaa !23
  %10 = icmp eq ptr %9, @odict_dealloc
  br i1 %10, label %11, label %12

11:                                               ; preds = %6
  tail call void @_PyTrash_thread_deposit_object(ptr noundef nonnull %2, ptr noundef nonnull %0) #8
  br label %48

12:                                               ; preds = %6, %1
  %13 = add i32 %4, -1
  store i32 %13, ptr %3, align 4, !tbaa !4
  %14 = getelementptr inbounds nuw i8, ptr %0, i64 96
  %15 = load ptr, ptr %14, align 8, !tbaa !31
  %.not.i = icmp eq ptr %15, null
  br i1 %.not.i, label %Py_XDECREF.exit, label %16

16:                                               ; preds = %12
  %17 = load i32, ptr %15, align 8, !tbaa !38
  %.not.i.i = icmp sgt i32 %17, -1
  br i1 %.not.i.i, label %18, label %Py_XDECREF.exit

18:                                               ; preds = %16
  %19 = add nsw i32 %17, -1
  store i32 %19, ptr %15, align 8, !tbaa !38
  %20 = icmp eq i32 %19, 0
  br i1 %20, label %21, label %Py_XDECREF.exit

21:                                               ; preds = %18
  tail call void @_Py_Dealloc(ptr noundef nonnull %15) #8
  br label %Py_XDECREF.exit

Py_XDECREF.exit:                                  ; preds = %12, %16, %18, %21
  %22 = getelementptr inbounds nuw i8, ptr %0, i64 104
  %23 = load ptr, ptr %22, align 8, !tbaa !39
  %.not = icmp eq ptr %23, null
  br i1 %.not, label %25, label %24

24:                                               ; preds = %Py_XDECREF.exit
  tail call void @PyObject_ClearWeakRefs(ptr noundef nonnull %0) #8
  br label %25

25:                                               ; preds = %24, %Py_XDECREF.exit
  %26 = getelementptr inbounds nuw i8, ptr %0, i64 64
  %27 = load ptr, ptr %26, align 8, !tbaa !40
  tail call void @PyMem_Free(ptr noundef %27) #8
  %28 = getelementptr inbounds nuw i8, ptr %0, i64 48
  tail call void @llvm.memset.p0.i64(ptr noundef nonnull align 8 dereferenceable(24) %26, i8 0, i64 24, i1 false)
  %29 = load ptr, ptr %28, align 8, !tbaa !41
  %.not13.i = icmp eq ptr %29, null
  tail call void @llvm.memset.p0.i64(ptr noundef nonnull align 8 dereferenceable(16) %28, i8 0, i64 16, i1 false)
  br i1 %.not13.i, label %_odict_clear_nodes.exit, label %.lr.ph.i

.lr.ph.i:                                         ; preds = %25, %Py_DECREF.exit.i
  %.014.i = phi ptr [ %31, %Py_DECREF.exit.i ], [ %29, %25 ]
  %30 = getelementptr inbounds nuw i8, ptr %.014.i, i64 16
  %31 = load ptr, ptr %30, align 8, !tbaa !42
  %32 = load ptr, ptr %.014.i, align 8, !tbaa !44
  %33 = load i32, ptr %32, align 8, !tbaa !38
  %.not.i.i16 = icmp sgt i32 %33, -1
  br i1 %.not.i.i16, label %34, label %Py_DECREF.exit.i

34:                                               ; preds = %.lr.ph.i
  %35 = add nsw i32 %33, -1
  store i32 %35, ptr %32, align 8, !tbaa !38
  %36 = icmp eq i32 %35, 0
  br i1 %36, label %37, label %Py_DECREF.exit.i

37:                                               ; preds = %34
  tail call void @_Py_Dealloc(ptr noundef nonnull %32) #8
  br label %Py_DECREF.exit.i

Py_DECREF.exit.i:                                 ; preds = %37, %34, %.lr.ph.i
  tail call void @PyMem_Free(ptr noundef nonnull %.014.i) #8
  %.not.i17 = icmp eq ptr %31, null
  br i1 %.not.i17, label %_odict_clear_nodes.exit, label %.lr.ph.i, !llvm.loop !45

_odict_clear_nodes.exit:                          ; preds = %Py_DECREF.exit.i, %25
  %38 = getelementptr inbounds nuw i8, ptr %0, i64 88
  %39 = load i64, ptr %38, align 8, !tbaa !47
  %40 = add i64 %39, 1
  store i64 %40, ptr %38, align 8, !tbaa !47
  %41 = load ptr, ptr getelementptr inbounds nuw (i8, ptr @PyDict_Type, i64 48), align 8, !tbaa !23
  tail call void %41(ptr noundef %0) #8
  %42 = load i32, ptr %3, align 4, !tbaa !4
  %43 = add i32 %42, 1
  store i32 %43, ptr %3, align 4, !tbaa !4
  %44 = getelementptr inbounds nuw i8, ptr %2, i64 168
  %45 = load ptr, ptr %44, align 8, !tbaa !48
  %.not15 = icmp ne ptr %45, null
  %46 = icmp sgt i32 %43, 100
  %or.cond = select i1 %.not15, i1 %46, i1 false
  br i1 %or.cond, label %47, label %48

47:                                               ; preds = %_odict_clear_nodes.exit
  tail call void @_PyTrash_thread_destroy_chain(ptr noundef nonnull %2) #8
  br label %48

48:                                               ; preds = %_odict_clear_nodes.exit, %47, %11
  ret void
}